; Function Attrs: mustprogress uwtable
define hidden void @_ZN4LIEF10FileStreamC2EOS0_(ptr noundef nonnull align 8 dereferenceable(552) %0, ptr noundef nonnull align 8 dereferenceable(552) %1) unnamed_addr #3 align 2 personality ptr @__gxx_personality_v0 {
  store ptr getelementptr inbounds ({ [15 x ptr] }, ptr @_ZTVN4LIEF12BinaryStreamE, i64 0, i32 0, i64 2), ptr %0, align 8
  %3 = getelementptr inbounds i8, ptr %0, i64 8
  %4 = getelementptr inbounds i8, ptr %1, i64 8
  tail call void @llvm.memcpy.p0.p0.i64(ptr noundef nonnull align 8 dereferenceable(16) %3, ptr noundef nonnull align 8 dereferenceable(16) %4, i64 16, i1 false)
  store ptr getelementptr inbounds ({ [15 x ptr] }, ptr @_ZTVN4LIEF10FileStreamE, i64 0, i32 0, i64 2), ptr %0, align 8
  %5 = getelementptr inbounds i8, ptr %0, i64 24
  %6 = getelementptr inbounds i8, ptr %1, i64 24
  invoke void @_ZNSt14basic_ifstreamIcSt11char_traitsIcEEC1EOS2_(ptr noundef nonnull align 8 dereferenceable(256) %5, ptr noundef nonnull align 8 dereferenceable(256) %6)
          to label %7 unwind label %11

7:                                                ; preds = %2
  %8 = getelementptr inbounds i8, ptr %0, i64 544
  %9 = getelementptr inbounds i8, ptr %1, i64 544
  %10 = load i64, ptr %9, align 8
  store i64 %10, ptr %8, align 8
  ret void

11:                                               ; preds = %2
  %12 = landingpad { ptr, i32 }
          cleanup
  tail call void @_ZN4LIEF12BinaryStreamD2Ev(ptr noundef nonnull align 8 dereferenceable(24) %0) #20
  resume { ptr, i32 } %12
}